target datalayout = "e-m:e-p270:32:32-p271:32:32-p272:64:64-i64:64-i128:128-f80:128-n8:16:32:64-S128"
target triple = "x86_64-pc-linux-gnu"

%struct._exr_decode_pipeline = type { i64, ptr, i16, i16, i32, ptr, %struct.exr_chunk_info_t, i32, i32, i64, ptr, ptr, i64, ptr, i64, ptr, i64, ptr, i64, ptr, i64, ptr, i64, ptr, ptr, ptr, ptr, ptr, ptr, [5 x %struct.exr_coding_channel_info_t] }
%struct.exr_chunk_info_t = type { i32, i32, i32, i32, i32, i8, i8, i8, i8, i64, i64, i64, i64, i64 }
%struct.exr_coding_channel_info_t = type { ptr, i32, i32, i32, i32, i8, i8, i16, i16, i16, i32, i32, %union.anon }
%union.anon = type { ptr }
%struct._priv_exr_context_t = type { i8, i8, i8, i8, i8, i8, i8, i8, %struct.exr_attr_string_t, %struct.exr_attr_string_t, ptr, ptr, ptr, ptr, ptr, ptr, ptr, ptr, i32, i32, i32, i32, i32, float, ptr, ptr, ptr, i64, ptr, ptr, i64, i32, i32, i32, i32, %struct._priv_exr_part_t, ptr, ptr, %struct.exr_attribute_list, %union.pthread_mutex_t, i8, i8, [2 x i8], i32 }
%struct.exr_attr_string_t = type { i32, i32, ptr }
%struct._priv_exr_part_t = type { i32, i32, %struct.exr_attribute_list, ptr, ptr, ptr, ptr, ptr, ptr, ptr, ptr, ptr, ptr, ptr, ptr, ptr, ptr, %struct.exr_attr_box2i_t, %struct.exr_attr_box2i_t, i32, i32, i32, float, i32, i32, ptr, ptr, ptr, ptr, i64, i16, i16, i32, i64, i64 }
%struct.exr_attr_box2i_t = type { %struct.exr_attr_v2i_t, %struct.exr_attr_v2i_t }
%struct.exr_attr_v2i_t = type { i32, i32 }
%struct.exr_attribute_list = type { i32, i32, ptr, ptr }
%union.pthread_mutex_t = type { %struct.__pthread_mutex_s }
%struct.__pthread_mutex_s = type { i32, i32, i32, i32, i32, i16, i16, %struct.__pthread_internal_list }
%struct.__pthread_internal_list = type { ptr, ptr }

@.str.6 = private unnamed_addr constant [66 x i8] c"Invalid request for decoding update from different context / part\00", align 1

; Function Attrs: nounwind uwtable
define i32 @exr_decoding_update(ptr noundef %0, i32 noundef %1, ptr noundef %2, ptr noundef %3) #0 {
  %5 = alloca i32, align 4
  %6 = alloca ptr, align 8
  %7 = alloca i32, align 4
  %8 = alloca ptr, align 8
  %9 = alloca ptr, align 8
  %10 = alloca i32, align 4
  %11 = alloca ptr, align 8
  %12 = alloca i32, align 4
  store ptr %0, ptr %6, align 8, !tbaa !3
  store i32 %1, ptr %7, align 4, !tbaa !8
  store ptr %2, ptr %8, align 8, !tbaa !10
  store ptr %3, ptr %9, align 8, !tbaa !11
  call void @llvm.lifetime.start.p0(i64 4, ptr %10) #6
  call void @llvm.lifetime.start.p0(i64 8, ptr %11) #6
  %13 = load ptr, ptr %6, align 8, !tbaa !3
  %14 = icmp ne ptr %13, null
  br i1 %14, label %16, label %15

15:                                               ; preds = %4
  store i32 2, ptr %5, align 4
  store i32 1, ptr %12, align 4
  br label %78

16:                                               ; preds = %4
  %17 = load i32, ptr %7, align 4, !tbaa !8
  %18 = icmp slt i32 %17, 0
  br i1 %18, label %25, label %19

19:                                               ; preds = %16
  %20 = load i32, ptr %7, align 4, !tbaa !8
  %21 = load ptr, ptr %6, align 8, !tbaa !3
  %22 = getelementptr inbounds nuw %struct._priv_exr_context_t, ptr %21, i32 0, i32 34
  %23 = load i32, ptr %22, align 4, !tbaa !28
  %24 = icmp sge i32 %20, %23
  br i1 %24, label %25, label %26

25:                                               ; preds = %19, %16
  store i32 4, ptr %5, align 4
  store i32 1, ptr %12, align 4
  br label %78

26:                                               ; preds = %19
  %27 = load ptr, ptr %8, align 8, !tbaa !10
  %28 = icmp ne ptr %27, null
  br i1 %28, label %29, label %32

29:                                               ; preds = %26
  %30 = load ptr, ptr %9, align 8, !tbaa !11
  %31 = icmp ne ptr %30, null
  br i1 %31, label %38, label %32

32:                                               ; preds = %29, %26
  %33 = load ptr, ptr %6, align 8, !tbaa !3
  %34 = getelementptr inbounds nuw %struct._priv_exr_context_t, ptr %33, i32 0, i32 12
  %35 = load ptr, ptr %34, align 8, !tbaa !13
  %36 = load ptr, ptr %6, align 8, !tbaa !3
  %37 = call i32 %35(ptr noundef %36, i32 noundef 3)
  store i32 %37, ptr %5, align 4
  store i32 1, ptr %12, align 4
  br label %78

38:                                               ; preds = %29
  %39 = load ptr, ptr %6, align 8, !tbaa !3
  %40 = getelementptr inbounds nuw %struct._priv_exr_context_t, ptr %39, i32 0, i32 37
  %41 = load ptr, ptr %40, align 8, !tbaa !29
  %42 = load i32, ptr %7, align 4, !tbaa !8
  %43 = sext i32 %42 to i64
  %44 = getelementptr inbounds ptr, ptr %41, i64 %43
  %45 = load ptr, ptr %44, align 8, !tbaa !30
  store ptr %45, ptr %11, align 8, !tbaa !30
  %46 = load ptr, ptr %9, align 8, !tbaa !11
  %47 = getelementptr inbounds nuw %struct._exr_decode_pipeline, ptr %46, i32 0, i32 5
  %48 = load ptr, ptr %47, align 8, !tbaa !47
  %49 = load ptr, ptr %6, align 8, !tbaa !3
  %50 = icmp ne ptr %48, %49
  br i1 %50, label %57, label %51

51:                                               ; preds = %38
  %52 = load ptr, ptr %9, align 8, !tbaa !11
  %53 = getelementptr inbounds nuw %struct._exr_decode_pipeline, ptr %52, i32 0, i32 4
  %54 = load i32, ptr %53, align 4, !tbaa !44
  %55 = load i32, ptr %7, align 4, !tbaa !8
  %56 = icmp ne i32 %54, %55
  br i1 %56, label %57, label %63

57:                                               ; preds = %51, %38
  %58 = load ptr, ptr %6, align 8, !tbaa !3
  %59 = getelementptr inbounds nuw %struct._priv_exr_context_t, ptr %58, i32 0, i32 13
  %60 = load ptr, ptr %59, align 8, !tbaa !70
  %61 = load ptr, ptr %6, align 8, !tbaa !3
  %62 = call i32 %60(ptr noundef %61, i32 noundef 3, ptr noundef @.str.6)
  store i32 %62, ptr %5, align 4
  store i32 1, ptr %12, align 4
  br label %78

63:                                               ; preds = %51
  %64 = load ptr, ptr %9, align 8, !tbaa !11
  %65 = getelementptr inbounds nuw %struct._exr_decode_pipeline, ptr %64, i32 0, i32 1
  %66 = load ptr, ptr %65, align 8, !tbaa !52
  %67 = load ptr, ptr %9, align 8, !tbaa !11
  %68 = getelementptr inbounds nuw %struct._exr_decode_pipeline, ptr %67, i32 0, i32 2
  %69 = load i16, ptr %68, align 8, !tbaa !51
  %70 = load ptr, ptr %8, align 8, !tbaa !10
  %71 = load ptr, ptr %6, align 8, !tbaa !3
  %72 = load ptr, ptr %11, align 8, !tbaa !30
  %73 = call i32 @internal_coding_update_channel_info(ptr noundef %66, i16 noundef signext %69, ptr noundef %70, ptr noundef %71, ptr noundef %72)
  store i32 %73, ptr %10, align 4, !tbaa !8
  %74 = load ptr, ptr %9, align 8, !tbaa !11
  %75 = getelementptr inbounds nuw %struct._exr_decode_pipeline, ptr %74, i32 0, i32 6
  %76 = load ptr, ptr %8, align 8, !tbaa !10
  call void @llvm.memcpy.p0.p0.i64(ptr align 8 %75, ptr align 8 %76, i64 64, i1 false), !tbaa.struct !48
  %77 = load i32, ptr %10, align 4, !tbaa !8
  store i32 %77, ptr %5, align 4
  store i32 1, ptr %12, align 4
  br label %78

78:                                               ; preds = %63, %57, %32, %25, %15
  call void @llvm.lifetime.end.p0(i64 8, ptr %11) #6
  call void @llvm.lifetime.end.p0(i64 4, ptr %10) #6
  %79 = load i32, ptr %5, align 4
  ret i32 %79
}