; Function Attrs: nounwind uwtable
define i32 @exr_decoding_update(ptr noundef %0, i32 noundef %1, ptr noundef %2, ptr noundef %3) local_unnamed_addr #0 {
  %.not = icmp eq ptr %0, null
  br i1 %.not, label %39, label %5

5:                                                ; preds = %4
  %6 = icmp slt i32 %1, 0
  br i1 %6, label %39, label %7

7:                                                ; preds = %5
  %8 = getelementptr inbounds nuw i8, ptr %0, i64 196
  %9 = load i32, ptr %8, align 4, !tbaa !22
  %.not29 = icmp slt i32 %1, %9
  br i1 %.not29, label %10, label %39

10:                                               ; preds = %7
  %11 = icmp ne ptr %2, null
  %12 = icmp ne ptr %3, null
  %or.cond = and i1 %11, %12
  br i1 %or.cond, label %17, label %13

13:                                               ; preds = %10
  %14 = getelementptr inbounds nuw i8, ptr %0, i64 56
  %15 = load ptr, ptr %14, align 8, !tbaa !3
  %16 = tail call i32 %15(ptr noundef nonnull %0, i32 noundef 3) #5
  br label %39

17:                                               ; preds = %10
  %18 = getelementptr inbounds nuw i8, ptr %0, i64 472
  %19 = load ptr, ptr %18, align 8, !tbaa !23
  %20 = zext nneg i32 %1 to i64
  %21 = getelementptr inbounds nuw ptr, ptr %19, i64 %20
  %22 = load ptr, ptr %21, align 8, !tbaa !24
  %23 = getelementptr inbounds nuw i8, ptr %3, i64 24
  %24 = load ptr, ptr %23, align 8, !tbaa !38
  %.not30 = icmp eq ptr %24, %0
  br i1 %.not30, label %25, label %28

25:                                               ; preds = %17
  %26 = getelementptr inbounds nuw i8, ptr %3, i64 20
  %27 = load i32, ptr %26, align 4, !tbaa !34
  %.not31 = icmp eq i32 %27, %1
  br i1 %.not31, label %32, label %28

28:                                               ; preds = %25, %17
  %29 = getelementptr inbounds nuw i8, ptr %0, i64 64
  %30 = load ptr, ptr %29, align 8, !tbaa !62
  %31 = tail call i32 %30(ptr noundef nonnull %0, i32 noundef 3, ptr noundef nonnull @.str.6) #5
  br label %39

32:                                               ; preds = %25
  %33 = getelementptr inbounds nuw i8, ptr %3, i64 8
  %34 = load ptr, ptr %33, align 8, !tbaa !44
  %35 = getelementptr inbounds nuw i8, ptr %3, i64 16
  %36 = load i16, ptr %35, align 8, !tbaa !43
  %37 = tail call i32 @internal_coding_update_channel_info(ptr noundef %34, i16 noundef signext %36, ptr noundef nonnull %2, ptr noundef nonnull %0, ptr noundef %22) #5
  %38 = getelementptr inbounds nuw i8, ptr %3, i64 32
  tail call void @llvm.memcpy.p0.p0.i64(ptr noundef nonnull align 8 dereferenceable(64) %38, ptr noundef nonnull align 8 dereferenceable(64) %2, i64 64, i1 false), !tbaa.struct !39
  br label %39

39:                                               ; preds = %5, %7, %4, %32, %28, %13
  %.0 = phi i32 [ %31, %28 ], [ %37, %32 ], [ %16, %13 ], [ 2, %4 ], [ 4, %7 ], [ 4, %5 ]
  ret i32 %.0
}